target datalayout = "e-m:e-p270:32:32-p271:32:32-p272:64:64-i64:64-i128:128-f80:128-n8:16:32:64-S128"
target triple = "x86_64-pc-linux-gnu"

%struct.stbrp_context = type { i32, i32, i32, i32, i32 }

; Function Attrs: nounwind uwtable
define void @stbrp_init_target(ptr noundef %0, i32 noundef %1, i32 noundef %2, ptr noundef %3, i32 noundef %4) #0 {
  %6 = alloca ptr, align 8
  %7 = alloca i32, align 4
  %8 = alloca i32, align 4
  %9 = alloca ptr, align 8
  %10 = alloca i32, align 4
  store ptr %0, ptr %6, align 8, !tbaa !3
  store i32 %1, ptr %7, align 4, !tbaa !14
  store i32 %2, ptr %8, align 4, !tbaa !14
  store ptr %3, ptr %9, align 8, !tbaa !3
  store i32 %4, ptr %10, align 4, !tbaa !14
  %11 = load i32, ptr %7, align 4, !tbaa !14
  %12 = load ptr, ptr %6, align 8, !tbaa !3
  %13 = getelementptr inbounds nuw %struct.stbrp_context, ptr %12, i32 0, i32 0
  store i32 %11, ptr %13, align 4, !tbaa !184
  %14 = load i32, ptr %8, align 4, !tbaa !14
  %15 = load ptr, ptr %6, align 8, !tbaa !3
  %16 = getelementptr inbounds nuw %struct.stbrp_context, ptr %15, i32 0, i32 1
  store i32 %14, ptr %16, align 4, !tbaa !186
  %17 = load ptr, ptr %6, align 8, !tbaa !3
  %18 = getelementptr inbounds nuw %struct.stbrp_context, ptr %17, i32 0, i32 2
  store i32 0, ptr %18, align 4, !tbaa !187
  %19 = load ptr, ptr %6, align 8, !tbaa !3
  %20 = getelementptr inbounds nuw %struct.stbrp_context, ptr %19, i32 0, i32 3
  store i32 0, ptr %20, align 4, !tbaa !188
  %21 = load ptr, ptr %6, align 8, !tbaa !3
  %22 = getelementptr inbounds nuw %struct.stbrp_context, ptr %21, i32 0, i32 4
  store i32 0, ptr %22, align 4, !tbaa !189
  ret void
}