; Function Attrs: mustprogress nofree norecurse nosync nounwind willreturn memory(argmem: write) uwtable
define void @stbrp_init_target(ptr noundef writeonly captures(none) initializes((0, 20)) %0, i32 noundef %1, i32 noundef %2, ptr noundef readnone captures(none) %3, i32 noundef %4) local_unnamed_addr #12 {
  store i32 %1, ptr %0, align 4, !tbaa !163
  %6 = getelementptr inbounds nuw i8, ptr %0, i64 4
  store i32 %2, ptr %6, align 4, !tbaa !165
  %7 = getelementptr inbounds nuw i8, ptr %0, i64 8
  store i32 0, ptr %7, align 4, !tbaa !166
  %8 = getelementptr inbounds nuw i8, ptr %0, i64 12
  store i32 0, ptr %8, align 4, !tbaa !167
  %9 = getelementptr inbounds nuw i8, ptr %0, i64 16
  store i32 0, ptr %9, align 4, !tbaa !168
  ret void
}